; ModuleID = 'source-C-CXX/26/486.c'
source_filename = "source-C-CXX/26/486.c"
target datalayout = "e-m:e-p270:32:32-p271:32:32-p272:64:64-i64:64-f80:128-n8:16:32:64-S128"
target triple = "x86_64-pc-linux-gnu"

@.str = private unnamed_addr constant [3 x i8] c"%d\00", align 1
@.str.1 = private unnamed_addr constant [12 x i8] c"%lf %lf %lf\00", align 1
@.str.2 = private unnamed_addr constant [13 x i8] c"x1=x2=%.5lf\0A\00", align 1
@.str.3 = private unnamed_addr constant [33 x i8] c"x1=%.5lf+%.5lfi;x2=%.5lf-%.5lfi\0A\00", align 1
@.str.4 = private unnamed_addr constant [19 x i8] c"x1=%.5lf;x2=%.5lf\0A\00", align 1

; Function Attrs: nofree nounwind sspstrong uwtable
define dso_local i32 @main() local_unnamed_addr #0 {
  %1 = alloca double, align 8
  %2 = alloca double, align 8
  %3 = alloca double, align 8
  %4 = alloca i32, align 4
  %5 = bitcast double* %1 to i8*
  call void @llvm.lifetime.start.p0i8(i64 8, i8* nonnull %5) #4
  %6 = bitcast double* %2 to i8*
  call void @llvm.lifetime.start.p0i8(i64 8, i8* nonnull %6) #4
  %7 = bitcast double* %3 to i8*
  call void @llvm.lifetime.start.p0i8(i64 8, i8* nonnull %7) #4
  %8 = bitcast i32* %4 to i8*
  call void @llvm.lifetime.start.p0i8(i64 4, i8* nonnull %8) #4
  %9 = call i32 (i8*, ...) @__isoc99_scanf(i8* getelementptr inbounds ([3 x i8], [3 x i8]* @.str, i64 0, i64 0), i32* nonnull %4)
  %10 = load i32, i32* %4, align 4, !tbaa !5
  %11 = icmp slt i32 %10, 1
  br i1 %11, label %53, label %12

12:                                               ; preds = %0, %49
  %13 = phi i32 [ %50, %49 ], [ 1, %0 ]
  %14 = call i32 (i8*, ...) @__isoc99_scanf(i8* getelementptr inbounds ([12 x i8], [12 x i8]* @.str.1, i64 0, i64 0), double* nonnull %1, double* nonnull %2, double* nonnull %3)
  %15 = load double, double* %2, align 8, !tbaa !9
  %16 = fneg double %15
  %17 = load double, double* %1, align 8, !tbaa !9
  %18 = fmul double %17, 2.000000e+00
  %19 = fdiv double %16, %18
  %20 = fcmp oeq double %19, 0.000000e+00
  %21 = select i1 %20, double 0.000000e+00, double %19
  %22 = fmul double %15, %15
  %23 = fmul double %17, 4.000000e+00
  %24 = load double, double* %3, align 8, !tbaa !9
  %25 = fmul double %23, %24
  %26 = fsub double %22, %25
  %27 = fcmp oeq double %26, 0.000000e+00
  br i1 %27, label %28, label %30

28:                                               ; preds = %12
  %29 = call i32 (i8*, ...) @printf(i8* nonnull dereferenceable(1) getelementptr inbounds ([13 x i8], [13 x i8]* @.str.2, i64 0, i64 0), double %21)
  br label %49

30:                                               ; preds = %12
  %31 = fcmp olt double %26, 0.000000e+00
  br i1 %31, label %32, label %39

32:                                               ; preds = %30
  %33 = fsub double %25, %22
  %34 = call double @sqrt(double %33) #4
  %35 = load double, double* %1, align 8, !tbaa !9
  %36 = fmul double %35, 2.000000e+00
  %37 = fdiv double %34, %36
  %38 = call i32 (i8*, ...) @printf(i8* nonnull dereferenceable(1) getelementptr inbounds ([33 x i8], [33 x i8]* @.str.3, i64 0, i64 0), double %21, double %37, double %21, double %37)
  br label %49

39:                                               ; preds = %30
  %40 = fcmp ogt double %26, 0.000000e+00
  br i1 %40, label %41, label %49

41:                                               ; preds = %39
  %42 = call double @sqrt(double %26) #4
  %43 = load double, double* %1, align 8, !tbaa !9
  %44 = fmul double %43, 2.000000e+00
  %45 = fdiv double %42, %44
  %46 = fadd double %21, %45
  %47 = fsub double %21, %45
  %48 = call i32 (i8*, ...) @printf(i8* nonnull dereferenceable(1) getelementptr inbounds ([19 x i8], [19 x i8]* @.str.4, i64 0, i64 0), double %46, double %47)
  br label %49

49:                                               ; preds = %32, %41, %39, %28
  %50 = add nuw nsw i32 %13, 1
  %51 = load i32, i32* %4, align 4, !tbaa !5
  %52 = icmp slt i32 %13, %51
  br i1 %52, label %12, label %53, !llvm.loop !11

53:                                               ; preds = %49, %0
  call void @llvm.lifetime.end.p0i8(i64 4, i8* nonnull %8) #4
  call void @llvm.lifetime.end.p0i8(i64 8, i8* nonnull %7) #4
  call void @llvm.lifetime.end.p0i8(i64 8, i8* nonnull %6) #4
  call void @llvm.lifetime.end.p0i8(i64 8, i8* nonnull %5) #4
  ret i32 0
}

; Function Attrs: argmemonly mustprogress nofree nosync nounwind willreturn
declare void @llvm.lifetime.start.p0i8(i64 immarg, i8* nocapture) #1

; Function Attrs: nofree nounwind
declare noundef i32 @__isoc99_scanf(i8* nocapture noundef readonly, ...) local_unnamed_addr #2

; Function Attrs: nofree nounwind
declare noundef i32 @printf(i8* nocapture noundef readonly, ...) local_unnamed_addr #2

; Function Attrs: mustprogress nofree nounwind willreturn
declare double @sqrt(double) local_unnamed_addr #3

; Function Attrs: argmemonly mustprogress nofree nosync nounwind willreturn
declare void @llvm.lifetime.end.p0i8(i64 immarg, i8* nocapture) #1


!llvm.module.flags = !{!0, !1, !2, !3}
!llvm.ident = !{!4}

!0 = !{i32 1, !"wchar_size", i32 4}
!1 = !{i32 7, !"PIC Level", i32 2}
!2 = !{i32 7, !"PIE Level", i32 2}
!3 = !{i32 7, !"uwtable", i32 1}
!4 = !{!"clang version 13.0.0"}
!5 = !{!6, !6, i64 0}
!6 = !{!"int", !7, i64 0}
!7 = !{!"omnipotent char", !8, i64 0}
!8 = !{!"Simple C/C++ TBAA"}
!9 = !{!10, !10, i64 0}
!10 = !{!"double", !7, i64 0}
!11 = distinct !{!11, !12}
!12 = !{!"llvm.loop.mustprogress"}
